target datalayout = "e-m:e-p270:32:32-p271:32:32-p272:64:64-i64:64-i128:128-f80:128-n8:16:32:64-S128"
target triple = "x86_64-pc-linux-gnu"

%struct._FuncCandidateList = type { ptr, i32, i32, i32, i32, i32, i32, ptr, [0 x i32] }

; Function Attrs: nounwind uwtable
define internal i32 @LookupFuncNameInternal(i32 noundef %0, ptr noundef %1, i32 noundef %2, ptr noundef %3, i1 noundef zeroext %4, i1 noundef zeroext %5, ptr noundef %6) #0 {
  %8 = alloca i32, align 4
  %9 = alloca i32, align 4
  %10 = alloca ptr, align 8
  %11 = alloca i32, align 4
  %12 = alloca ptr, align 8
  %13 = alloca i8, align 1
  %14 = alloca i8, align 1
  %15 = alloca ptr, align 8
  %16 = alloca i32, align 4
  %17 = alloca ptr, align 8
  %18 = alloca i32, align 4
  store i32 %0, ptr %9, align 4
  store ptr %1, ptr %10, align 8
  store i32 %2, ptr %11, align 4
  store ptr %3, ptr %12, align 8
  %19 = zext i1 %4 to i8
  store i8 %19, ptr %13, align 1
  %20 = zext i1 %5 to i8
  store i8 %20, ptr %14, align 1
  store ptr %6, ptr %15, align 8
  call void @llvm.lifetime.start.p0(i64 4, ptr %16) #7
  store i32 0, ptr %16, align 4
  call void @llvm.lifetime.start.p0(i64 8, ptr %17) #7
  %21 = load ptr, ptr %15, align 8
  store i32 0, ptr %21, align 4
  %22 = load ptr, ptr %10, align 8
  %23 = load i32, ptr %11, align 4
  %24 = load i8, ptr %13, align 1, !range !4, !noundef !5
  %25 = trunc i8 %24 to i1
  %26 = load i8, ptr %14, align 1, !range !4, !noundef !5
  %27 = trunc i8 %26 to i1
  %28 = call ptr @FuncnameGetCandidates(ptr noundef %22, i32 noundef %23, ptr noundef null, i1 noundef zeroext false, i1 noundef zeroext false, i1 noundef zeroext %25, i1 noundef zeroext %27)
  store ptr %28, ptr %17, align 8
  br label %29

29:                                               ; preds = %87, %7
  %30 = load ptr, ptr %17, align 8
  %31 = icmp ne ptr %30, null
  br i1 %31, label %32, label %91

32:                                               ; preds = %29
  %33 = load i32, ptr %11, align 4
  %34 = icmp sge i32 %33, 0
  br i1 %34, label %35, label %50

35:                                               ; preds = %32
  %36 = load i32, ptr %11, align 4
  %37 = icmp sgt i32 %36, 0
  br i1 %37, label %38, label %49

38:                                               ; preds = %35
  %39 = load ptr, ptr %12, align 8
  %40 = load ptr, ptr %17, align 8
  %41 = getelementptr inbounds nuw %struct._FuncCandidateList, ptr %40, i32 0, i32 8
  %42 = getelementptr inbounds [0 x i32], ptr %41, i64 0, i64 0
  %43 = load i32, ptr %11, align 4
  %44 = sext i32 %43 to i64
  %45 = mul i64 %44, 4
  %46 = call i32 @memcmp(ptr noundef %39, ptr noundef %42, i64 noundef %45) #9
  %47 = icmp ne i32 %46, 0
  br i1 %47, label %48, label %49

48:                                               ; preds = %38
  br label %87

49:                                               ; preds = %38, %35
  br label %50

50:                                               ; preds = %49, %32
  %51 = load ptr, ptr %17, align 8
  %52 = getelementptr inbounds nuw %struct._FuncCandidateList, ptr %51, i32 0, i32 2
  %53 = load i32, ptr %52, align 4
  %54 = icmp ne i32 %53, 0
  br i1 %54, label %57, label %55

55:                                               ; preds = %50
  %56 = load ptr, ptr %15, align 8
  store i32 1, ptr %56, align 4
  store i32 0, ptr %8, align 4
  store i32 1, ptr %18, align 4
  br label %93

57:                                               ; preds = %50
  %58 = load i32, ptr %9, align 4
  switch i32 %58, label %77 [
    i32 19, label %59
    i32 1, label %59
    i32 29, label %68
    i32 34, label %78
  ]

59:                                               ; preds = %57, %57
  %60 = load ptr, ptr %17, align 8
  %61 = getelementptr inbounds nuw %struct._FuncCandidateList, ptr %60, i32 0, i32 2
  %62 = load i32, ptr %61, align 4
  %63 = call signext i8 @get_func_prokind(i32 noundef %62)
  %64 = sext i8 %63 to i32
  %65 = icmp eq i32 %64, 112
  br i1 %65, label %66, label %67

66:                                               ; preds = %59
  br label %87

67:                                               ; preds = %59
  br label %78

68:                                               ; preds = %57
  %69 = load ptr, ptr %17, align 8
  %70 = getelementptr inbounds nuw %struct._FuncCandidateList, ptr %69, i32 0, i32 2
  %71 = load i32, ptr %70, align 4
  %72 = call signext i8 @get_func_prokind(i32 noundef %71)
  %73 = sext i8 %72 to i32
  %74 = icmp ne i32 %73, 112
  br i1 %74, label %75, label %76

75:                                               ; preds = %68
  br label %87

76:                                               ; preds = %68
  br label %78

77:                                               ; preds = %57
  br label %78

78:                                               ; preds = %77, %57, %76, %67
  %79 = load i32, ptr %16, align 4
  %80 = icmp ne i32 %79, 0
  br i1 %80, label %81, label %83

81:                                               ; preds = %78
  %82 = load ptr, ptr %15, align 8
  store i32 1, ptr %82, align 4
  store i32 0, ptr %8, align 4
  store i32 1, ptr %18, align 4
  br label %93

83:                                               ; preds = %78
  %84 = load ptr, ptr %17, align 8
  %85 = getelementptr inbounds nuw %struct._FuncCandidateList, ptr %84, i32 0, i32 2
  %86 = load i32, ptr %85, align 4
  store i32 %86, ptr %16, align 4
  br label %87

87:                                               ; preds = %83, %75, %66, %48
  %88 = load ptr, ptr %17, align 8
  %89 = getelementptr inbounds nuw %struct._FuncCandidateList, ptr %88, i32 0, i32 0
  %90 = load ptr, ptr %89, align 8
  store ptr %90, ptr %17, align 8
  br label %29, !llvm.loop !33

91:                                               ; preds = %29
  %92 = load i32, ptr %16, align 4
  store i32 %92, ptr %8, align 4
  store i32 1, ptr %18, align 4
  br label %93

93:                                               ; preds = %91, %81, %55
  call void @llvm.lifetime.end.p0(i64 8, ptr %17) #7
  call void @llvm.lifetime.end.p0(i64 4, ptr %16) #7
  %94 = load i32, ptr %8, align 4
  ret i32 %94
}