; Function Attrs: nounwind uwtable
define internal fastcc i32 @LookupFuncNameInternal(i32 noundef %0, ptr noundef %1, i32 noundef %2, ptr noundef readonly captures(none) %3, i1 noundef zeroext %4, i1 noundef zeroext %5, ptr noundef nonnull writeonly captures(none) initializes((0, 4)) %6) unnamed_addr #0 {
  store i32 0, ptr %6, align 4
  %8 = tail call ptr @FuncnameGetCandidates(ptr noundef %1, i32 noundef %2, ptr noundef null, i1 noundef zeroext false, i1 noundef zeroext false, i1 noundef zeroext %4, i1 noundef zeroext %5) #8
  %.not32 = icmp eq ptr %8, null
  br i1 %.not32, label %.loopexit, label %.lr.ph

.lr.ph:                                           ; preds = %7
  %9 = icmp sgt i32 %2, 0
  %10 = zext nneg i32 %2 to i64
  %11 = shl nuw nsw i64 %10, 2
  br i1 %9, label %.lr.ph.split.us, label %.lr.ph.split

.lr.ph.split.us:                                  ; preds = %.lr.ph, %25
  %.034.us = phi ptr [ %26, %25 ], [ %8, %.lr.ph ]
  %.02233.us = phi i32 [ %.1.us, %25 ], [ 0, %.lr.ph ]
  %12 = getelementptr inbounds nuw i8, ptr %.034.us, i64 40
  %bcmp.us = tail call i32 @bcmp(ptr %3, ptr nonnull %12, i64 %11)
  %.not26.us = icmp eq i32 %bcmp.us, 0
  br i1 %.not26.us, label %13, label %25

13:                                               ; preds = %.lr.ph.split.us
  %14 = getelementptr inbounds nuw i8, ptr %.034.us, i64 12
  %15 = load i32, ptr %14, align 4
  %.not27.us = icmp eq i32 %15, 0
  br i1 %.not27.us, label %.loopexit.sink.split, label %16

16:                                               ; preds = %13
  switch i32 %0, label %22 [
    i32 19, label %19
    i32 1, label %19
    i32 29, label %17
  ]

17:                                               ; preds = %16
  %18 = tail call signext i8 @get_func_prokind(i32 noundef %15) #8
  %.not28.us = icmp eq i8 %18, 112
  br i1 %.not28.us, label %22, label %25

19:                                               ; preds = %16, %16
  %20 = tail call signext i8 @get_func_prokind(i32 noundef %15) #8
  %21 = icmp eq i8 %20, 112
  br i1 %21, label %25, label %22

22:                                               ; preds = %19, %17, %16
  %.not29.us = icmp eq i32 %.02233.us, 0
  br i1 %.not29.us, label %23, label %.loopexit.sink.split

23:                                               ; preds = %22
  %24 = load i32, ptr %14, align 4
  br label %25

25:                                               ; preds = %23, %19, %17, %.lr.ph.split.us
  %.1.us = phi i32 [ %.02233.us, %.lr.ph.split.us ], [ %24, %23 ], [ %.02233.us, %17 ], [ %.02233.us, %19 ]
  %26 = load ptr, ptr %.034.us, align 8
  %.not.us = icmp eq ptr %26, null
  br i1 %.not.us, label %.loopexit, label %.lr.ph.split.us, !llvm.loop !27

.lr.ph.split:                                     ; preds = %.lr.ph
  switch i32 %0, label %.lr.ph.split.split [
    i32 19, label %.lr.ph.split.split.us.preheader
    i32 1, label %.lr.ph.split.split.us.preheader
    i32 29, label %.lr.ph.split.split.us45
  ]

.lr.ph.split.split.us.preheader:                  ; preds = %.lr.ph.split, %.lr.ph.split
  br label %.lr.ph.split.split.us

.lr.ph.split.split.us:                            ; preds = %.lr.ph.split.split.us.preheader, %35
  %.034.us37 = phi ptr [ %36, %35 ], [ %8, %.lr.ph.split.split.us.preheader ]
  %.02233.us38 = phi i32 [ %.1.us41, %35 ], [ 0, %.lr.ph.split.split.us.preheader ]
  %27 = getelementptr inbounds nuw i8, ptr %.034.us37, i64 12
  %28 = load i32, ptr %27, align 4
  %.not27.us39 = icmp eq i32 %28, 0
  br i1 %.not27.us39, label %.loopexit.sink.split, label %29

29:                                               ; preds = %.lr.ph.split.split.us
  %30 = tail call signext i8 @get_func_prokind(i32 noundef %28) #8
  %31 = icmp eq i8 %30, 112
  br i1 %31, label %35, label %32

32:                                               ; preds = %29
  %.not29.us40 = icmp eq i32 %.02233.us38, 0
  br i1 %.not29.us40, label %33, label %.loopexit.sink.split

33:                                               ; preds = %32
  %34 = load i32, ptr %27, align 4
  br label %35

35:                                               ; preds = %33, %29
  %.1.us41 = phi i32 [ %34, %33 ], [ %.02233.us38, %29 ]
  %36 = load ptr, ptr %.034.us37, align 8
  %.not.us42 = icmp eq ptr %36, null
  br i1 %.not.us42, label %.loopexit, label %.lr.ph.split.split.us, !llvm.loop !27

.lr.ph.split.split.us45:                          ; preds = %.lr.ph.split, %44
  %.034.us46 = phi ptr [ %45, %44 ], [ %8, %.lr.ph.split ]
  %.02233.us47 = phi i32 [ %.1.us51, %44 ], [ 0, %.lr.ph.split ]
  %37 = getelementptr inbounds nuw i8, ptr %.034.us46, i64 12
  %38 = load i32, ptr %37, align 4
  %.not27.us48 = icmp eq i32 %38, 0
  br i1 %.not27.us48, label %.loopexit.sink.split, label %39

39:                                               ; preds = %.lr.ph.split.split.us45
  %40 = tail call signext i8 @get_func_prokind(i32 noundef %38) #8
  %.not28.us49 = icmp eq i8 %40, 112
  br i1 %.not28.us49, label %41, label %44

41:                                               ; preds = %39
  %.not29.us50 = icmp eq i32 %.02233.us47, 0
  br i1 %.not29.us50, label %42, label %.loopexit.sink.split

42:                                               ; preds = %41
  %43 = load i32, ptr %37, align 4
  br label %44

44:                                               ; preds = %42, %39
  %.1.us51 = phi i32 [ %43, %42 ], [ %.02233.us47, %39 ]
  %45 = load ptr, ptr %.034.us46, align 8
  %.not.us52 = icmp eq ptr %45, null
  br i1 %.not.us52, label %.loopexit, label %.lr.ph.split.split.us45, !llvm.loop !27

.lr.ph.split.split:                               ; preds = %.lr.ph.split, %48
  %.034 = phi ptr [ %49, %48 ], [ %8, %.lr.ph.split ]
  %.not29.not = phi i1 [ true, %48 ], [ false, %.lr.ph.split ]
  %46 = getelementptr inbounds nuw i8, ptr %.034, i64 12
  %47 = load i32, ptr %46, align 4
  %.not27 = icmp eq i32 %47, 0
  %brmerge = or i1 %.not27, %.not29.not
  br i1 %brmerge, label %.loopexit.sink.split, label %48

48:                                               ; preds = %.lr.ph.split.split
  %49 = load ptr, ptr %.034, align 8
  %.not = icmp eq ptr %49, null
  br i1 %.not, label %.loopexit, label %.lr.ph.split.split, !llvm.loop !27

.loopexit.sink.split:                             ; preds = %41, %.lr.ph.split.split.us45, %32, %.lr.ph.split.split.us, %.lr.ph.split.split, %22, %13
  store i32 1, ptr %6, align 4
  br label %.loopexit

.loopexit:                                        ; preds = %44, %35, %48, %25, %.loopexit.sink.split, %7
  %.023 = phi i32 [ 0, %7 ], [ 0, %.loopexit.sink.split ], [ %.1.us, %25 ], [ %47, %48 ], [ %.1.us41, %35 ], [ %.1.us51, %44 ]
  ret i32 %.023
}